; Function Attrs: nofree norecurse nounwind uwtable
define i64 @PaUtil_AdvanceRingBufferReadIndex(ptr noundef %0, i64 noundef %1) local_unnamed_addr #3 {
  fence seq_cst
  %3 = getelementptr inbounds nuw i8, ptr %0, i64 16
  %4 = load volatile i64, ptr %3, align 8, !tbaa !11
  %5 = add nsw i64 %4, %1
  %6 = getelementptr inbounds nuw i8, ptr %0, i64 24
  %7 = load i64, ptr %6, align 8, !tbaa !13
  %8 = and i64 %5, %7
  store volatile i64 %8, ptr %3, align 8, !tbaa !11
  ret i64 %8
}